; Function Attrs: nounwind uwtable
define ptr @Aig_TsiStateNew(ptr noundef readonly captures(none) %0) local_unnamed_addr #0 {
  %2 = getelementptr inbounds nuw i8, ptr %0, i64 24
  %3 = load ptr, ptr %2, align 8, !tbaa !30
  %4 = tail call ptr @Aig_MmFixedEntryFetch(ptr noundef %3) #17
  %5 = getelementptr inbounds nuw i8, ptr %0, i64 8
  %6 = load i32, ptr %5, align 8, !tbaa !24
  %7 = sext i32 %6 to i64
  %8 = shl nsw i64 %7, 2
  tail call void @llvm.memset.p0.i64(ptr align 4 %4, i8 0, i64 %8, i1 false)
  %9 = getelementptr inbounds nuw i8, ptr %0, i64 16
  %10 = load ptr, ptr %9, align 8, !tbaa !29
  %11 = getelementptr inbounds nuw i8, ptr %10, i64 4
  %12 = load i32, ptr %11, align 4, !tbaa !25
  %13 = load i32, ptr %10, align 8, !tbaa !27
  %14 = icmp eq i32 %12, %13
  br i1 %14, label %15, label %.Vec_PtrGrow.exit11_crit_edge.i

.Vec_PtrGrow.exit11_crit_edge.i:                  ; preds = %1
  %.phi.trans.insert.i = getelementptr inbounds nuw i8, ptr %10, i64 8
  %.pre.i = load ptr, ptr %.phi.trans.insert.i, align 8, !tbaa !28
  br label %Vec_PtrPush.exit

15:                                               ; preds = %1
  %16 = icmp slt i32 %12, 16
  br i1 %16, label %17, label %25

17:                                               ; preds = %15
  %18 = getelementptr inbounds nuw i8, ptr %10, i64 8
  %19 = load ptr, ptr %18, align 8, !tbaa !28
  %.not9.i.i = icmp eq ptr %19, null
  br i1 %.not9.i.i, label %22, label %20

20:                                               ; preds = %17
  %21 = tail call dereferenceable_or_null(128) ptr @realloc(ptr noundef nonnull %19, i64 noundef 128) #18
  br label %Vec_PtrGrow.exit.i

22:                                               ; preds = %17
  %23 = tail call noalias dereferenceable_or_null(128) ptr @malloc(i64 noundef 128) #16
  br label %Vec_PtrGrow.exit.i

Vec_PtrGrow.exit.i:                               ; preds = %22, %20
  %24 = phi ptr [ %21, %20 ], [ %23, %22 ]
  store ptr %24, ptr %18, align 8, !tbaa !28
  store i32 16, ptr %10, align 8, !tbaa !27
  br label %Vec_PtrPush.exit

25:                                               ; preds = %15
  %26 = shl nuw nsw i32 %12, 1
  %27 = getelementptr inbounds nuw i8, ptr %10, i64 8
  %28 = load ptr, ptr %27, align 8, !tbaa !28
  %.not9.i10.i = icmp eq ptr %28, null
  %29 = zext nneg i32 %26 to i64
  %30 = shl nuw nsw i64 %29, 3
  br i1 %.not9.i10.i, label %33, label %31

31:                                               ; preds = %25
  %32 = tail call ptr @realloc(ptr noundef nonnull %28, i64 noundef %30) #18
  br label %35

33:                                               ; preds = %25
  %34 = tail call noalias ptr @malloc(i64 noundef %30) #16
  br label %35

35:                                               ; preds = %33, %31
  %36 = phi ptr [ %32, %31 ], [ %34, %33 ]
  store ptr %36, ptr %27, align 8, !tbaa !28
  store i32 %26, ptr %10, align 8, !tbaa !27
  br label %Vec_PtrPush.exit

Vec_PtrPush.exit:                                 ; preds = %.Vec_PtrGrow.exit11_crit_edge.i, %Vec_PtrGrow.exit.i, %35
  %37 = phi ptr [ %.pre.i, %.Vec_PtrGrow.exit11_crit_edge.i ], [ %36, %35 ], [ %24, %Vec_PtrGrow.exit.i ]
  %38 = load i32, ptr %11, align 4, !tbaa !25
  %39 = add nsw i32 %38, 1
  store i32 %39, ptr %11, align 4, !tbaa !25
  %40 = sext i32 %38 to i64
  %41 = getelementptr inbounds ptr, ptr %37, i64 %40
  store ptr %4, ptr %41, align 8, !tbaa !40
  ret ptr %4
}